target datalayout = "e-m:e-p270:32:32-p271:32:32-p272:64:64-i64:64-i128:128-f80:128-n8:16:32:64-S128"
target triple = "x86_64-unknown-linux-gnu"

%"struct.node::crypto::CSPRNGResult" = type { i8 }

; Function Attrs: mustprogress nounwind uwtable
define internal noundef i32 @_ZL14ERR_GET_REASONm(i64 noundef %errcode) #4 {
entry:
  %retval = alloca i32, align 4
  %errcode.addr = alloca i64, align 8
  store i64 %errcode, ptr %errcode.addr, align 8
  %0 = load i64, ptr %errcode.addr, align 8
  %and = and i64 %0, 2147483648
  %cmp = icmp ne i64 %and, 0
  br i1 %cmp, label %if.then, label %if.end

if.then:                                          ; preds = %entry
  %1 = load i64, ptr %errcode.addr, align 8
  %and1 = and i64 %1, 2147483647
  %conv = trunc i64 %and1 to i32
  store i32 %conv, ptr %retval, align 4
  br label %return

if.end:                                           ; preds = %entry
  %2 = load i64, ptr %errcode.addr, align 8
  %and2 = and i64 %2, 8388607
  %conv3 = trunc i64 %and2 to i32
  store i32 %conv3, ptr %retval, align 4
  br label %return

return:                                           ; preds = %if.end, %if.then
  %3 = load i32, ptr %retval, align 4
  ret i32 %3
}

; Function Attrs: mustprogress nounwind uwtable
define internal noundef i32 @_ZL11ERR_GET_LIBm(i64 noundef %errcode) #4 {
entry:
  %retval = alloca i32, align 4
  %errcode.addr = alloca i64, align 8
  store i64 %errcode, ptr %errcode.addr, align 8
  %0 = load i64, ptr %errcode.addr, align 8
  %and = and i64 %0, 2147483648
  %cmp = icmp ne i64 %and, 0
  br i1 %cmp, label %if.then, label %if.end

if.then:                                          ; preds = %entry
  store i32 2, ptr %retval, align 4
  br label %return

if.end:                                           ; preds = %entry
  %1 = load i64, ptr %errcode.addr, align 8
  %shr = lshr i64 %1, 23
  %and1 = and i64 %shr, 255
  %conv = trunc i64 %and1 to i32
  store i32 %conv, ptr %retval, align 4
  br label %return

return:                                           ; preds = %if.end, %if.then
  %2 = load i32, ptr %retval, align 4
  ret i32 %2
}

; Function Attrs: mustprogress nounwind uwtable
define dso_local i8 @_ZN4node6crypto6CSPRNGEPvm(ptr noundef %buffer, i64 noundef %length) #4 {
entry:
  %retval = alloca %"struct.node::crypto::CSPRNGResult", align 1
  %buffer.addr = alloca ptr, align 8
  %length.addr = alloca i64, align 8
  %buf = alloca ptr, align 8
  %code = alloca i64, align 8
  %reason = alloca i32, align 4
  store ptr %buffer, ptr %buffer.addr, align 8
  store i64 %length, ptr %length.addr, align 8
  %0 = load ptr, ptr %buffer.addr, align 8
  store ptr %0, ptr %buf, align 8
  br label %do.body

do.body:                                          ; preds = %do.cond, %entry
  %call = call i32 @RAND_status()
  %cmp = icmp eq i32 1, %call
  br i1 %cmp, label %if.then, label %if.end4

if.then:                                          ; preds = %do.body
  %1 = load ptr, ptr %buf, align 8
  %2 = load i64, ptr %length.addr, align 8
  %call1 = call i32 @RAND_bytes_ex(ptr noundef null, ptr noundef %1, i64 noundef %2, i32 noundef 0)
  %cmp2 = icmp eq i32 1, %call1
  br i1 %cmp2, label %if.then3, label %if.end

if.then3:                                         ; preds = %if.then
  %ok = getelementptr inbounds %"struct.node::crypto::CSPRNGResult", ptr %retval, i32 0, i32 0
  store i8 1, ptr %ok, align 1
  br label %return

if.end:                                           ; preds = %if.then
  br label %if.end4

if.end4:                                          ; preds = %if.end, %do.body
  %call5 = call i64 @ERR_peek_last_error()
  store i64 %call5, ptr %code, align 8
  %3 = load i64, ptr %code, align 8
  %call6 = call noundef i32 @_ZL11ERR_GET_LIBm(i64 noundef %3)
  %cmp7 = icmp eq i32 %call6, 36
  br i1 %cmp7, label %if.then8, label %if.end17

if.then8:                                         ; preds = %if.end4
  %4 = load i64, ptr %code, align 8
  %call9 = call noundef i32 @_ZL14ERR_GET_REASONm(i64 noundef %4)
  store i32 %call9, ptr %reason, align 4
  %5 = load i32, ptr %reason, align 4
  %cmp10 = icmp eq i32 %5, 108
  br i1 %cmp10, label %if.then14, label %lor.lhs.false

lor.lhs.false:                                    ; preds = %if.then8
  %6 = load i32, ptr %reason, align 4
  %cmp11 = icmp eq i32 %6, 144
  br i1 %cmp11, label %if.then14, label %lor.lhs.false12

lor.lhs.false12:                                  ; preds = %lor.lhs.false
  %7 = load i32, ptr %reason, align 4
  %cmp13 = icmp eq i32 %7, 143
  br i1 %cmp13, label %if.then14, label %if.end16

if.then14:                                        ; preds = %lor.lhs.false12, %lor.lhs.false, %if.then8
  %ok15 = getelementptr inbounds %"struct.node::crypto::CSPRNGResult", ptr %retval, i32 0, i32 0
  store i8 0, ptr %ok15, align 1
  br label %return

if.end16:                                         ; preds = %lor.lhs.false12
  br label %if.end17

if.end17:                                         ; preds = %if.end16, %if.end4
  br label %do.cond

do.cond:                                          ; preds = %if.end17
  %call18 = call i32 @RAND_poll()
  %cmp19 = icmp eq i32 1, %call18
  br i1 %cmp19, label %do.body, label %do.end, !llvm.loop !5

do.end:                                           ; preds = %do.cond
  %ok20 = getelementptr inbounds %"struct.node::crypto::CSPRNGResult", ptr %retval, i32 0, i32 0
  store i8 0, ptr %ok20, align 1
  br label %return

return:                                           ; preds = %do.end, %if.then14, %if.then3
  %coerce.dive = getelementptr inbounds %"struct.node::crypto::CSPRNGResult", ptr %retval, i32 0, i32 0
  %8 = load i8, ptr %coerce.dive, align 1
  ret i8 %8
}