; Function Attrs: mustprogress nounwind uwtable
define dso_local noundef i8 @_ZN4node6crypto6CSPRNGEPvm(ptr noundef %buffer, i64 noundef %length) local_unnamed_addr #4 {
entry:
  br label %do.body

do.body:                                          ; preds = %do.cond, %entry
  %call = tail call i32 @RAND_status() #25
  %cmp = icmp eq i32 %call, 1
  br i1 %cmp, label %if.then, label %if.end4

if.then:                                          ; preds = %do.body
  %call1 = tail call i32 @RAND_bytes_ex(ptr noundef null, ptr noundef %buffer, i64 noundef %length, i32 noundef 0) #25
  %cmp2 = icmp eq i32 %call1, 1
  br i1 %cmp2, label %return, label %if.end4

if.end4:                                          ; preds = %if.then, %do.body
  %call5 = tail call i64 @ERR_peek_last_error() #25
  %and.i = and i64 %call5, 2147483648
  %cmp.not.i = icmp eq i64 %and.i, 0
  %0 = trunc i64 %call5 to i32
  %.mask = and i32 %0, -8388608
  %cmp78 = icmp eq i32 %.mask, 301989888
  %cmp7 = and i1 %cmp.not.i, %cmp78
  br i1 %cmp7, label %if.then8, label %do.cond

if.then8:                                         ; preds = %if.end4
  %retval.0.i7 = and i32 %0, 8388607
  switch i32 %retval.0.i7, label %do.cond [
    i32 144, label %return
    i32 143, label %return
    i32 108, label %return
  ]

do.cond:                                          ; preds = %if.then8, %if.end4
  %call18 = tail call i32 @RAND_poll() #25
  %cmp19 = icmp eq i32 %call18, 1
  br i1 %cmp19, label %do.body, label %return, !llvm.loop !5

return:                                           ; preds = %do.cond, %if.then8, %if.then8, %if.then8, %if.then
  %retval.sroa.0.0 = phi i8 [ 1, %if.then ], [ 0, %if.then8 ], [ 0, %if.then8 ], [ 0, %if.then8 ], [ 0, %do.cond ]
  ret i8 %retval.sroa.0.0
}